; Function Attrs: mustprogress nounwind uwtable
define hidden void @_ZN8GCLocker8jni_lockEP10JavaThread(ptr nocapture noundef %0) local_unnamed_addr #0 align 2 {
  %2 = load ptr, ptr @JNICritical_lock, align 8
  %.not.i.i = icmp eq ptr %2, null
  br i1 %.not.i.i, label %_ZN13MonitorLockerC2EP7MonitorN5Mutex18SafepointCheckFlagE.exit, label %3

3:                                                ; preds = %1
  tail call void @_ZN5Mutex4lockEv(ptr noundef nonnull align 8 dereferenceable(104) %2) #8
  br label %_ZN13MonitorLockerC2EP7MonitorN5Mutex18SafepointCheckFlagE.exit

_ZN13MonitorLockerC2EP7MonitorN5Mutex18SafepointCheckFlagE.exit: ; preds = %1, %3
  %4 = load volatile i8, ptr @_ZN8GCLocker9_needs_gcE, align 1
  %5 = trunc i8 %4 to i1
  br i1 %5, label %_ZN13MonitorLocker4waitEl.exit, label %._crit_edge

_ZN13MonitorLocker4waitEl.exit:                   ; preds = %_ZN13MonitorLockerC2EP7MonitorN5Mutex18SafepointCheckFlagE.exit, %_ZN13MonitorLocker4waitEl.exit
  %6 = tail call noundef zeroext i1 @_ZN7Monitor4waitEm(ptr noundef nonnull align 8 dereferenceable(104) %2, i64 noundef 0) #8
  %7 = load volatile i8, ptr @_ZN8GCLocker9_needs_gcE, align 1
  %8 = trunc i8 %7 to i1
  br i1 %8, label %_ZN13MonitorLocker4waitEl.exit, label %._crit_edge, !llvm.loop !8

._crit_edge:                                      ; preds = %_ZN13MonitorLocker4waitEl.exit, %_ZN13MonitorLockerC2EP7MonitorN5Mutex18SafepointCheckFlagE.exit
  %9 = getelementptr inbounds i8, ptr %0, i64 1308
  %10 = load i32, ptr %9, align 4
  %11 = add nsw i32 %10, 1
  store i32 %11, ptr %9, align 4
  %12 = load volatile i32, ptr @_ZN8GCLocker15_jni_lock_countE, align 4
  %13 = add nsw i32 %12, 1
  store volatile i32 %13, ptr @_ZN8GCLocker15_jni_lock_countE, align 4
  br i1 %.not.i.i, label %_ZN13MonitorLockerD2Ev.exit, label %14

14:                                               ; preds = %._crit_edge
  tail call void @_ZN5Mutex6unlockEv(ptr noundef nonnull align 8 dereferenceable(104) %2) #8
  br label %_ZN13MonitorLockerD2Ev.exit

_ZN13MonitorLockerD2Ev.exit:                      ; preds = %._crit_edge, %14
  ret void
}